; Function Attrs: nounwind uwtable
define internal fastcc noundef ptr @_readGrantRoleStmt() unnamed_addr #0 {
  %1 = alloca i32, align 4
  %2 = tail call noundef ptr @palloc0(i64 noundef 56) #10
  store i32 154, ptr %2, align 4
  call void @llvm.lifetime.start.p0(i64 4, ptr nonnull %1) #10
  %3 = call ptr @pg_strtok(ptr noundef nonnull %1) #10
  %4 = call ptr @nodeRead(ptr noundef null, i32 noundef 0) #10
  %5 = getelementptr inbounds nuw i8, ptr %2, i64 8
  store ptr %4, ptr %5, align 8
  %6 = call ptr @pg_strtok(ptr noundef nonnull %1) #10
  %7 = call ptr @nodeRead(ptr noundef null, i32 noundef 0) #10
  %8 = getelementptr inbounds nuw i8, ptr %2, i64 16
  store ptr %7, ptr %8, align 8
  %9 = call ptr @pg_strtok(ptr noundef nonnull %1) #10
  %10 = call ptr @pg_strtok(ptr noundef nonnull %1) #10
  %11 = load i8, ptr %10, align 1
  %12 = icmp eq i8 %11, 116
  %13 = getelementptr inbounds nuw i8, ptr %2, i64 24
  %14 = zext i1 %12 to i8
  store i8 %14, ptr %13, align 8
  %15 = call ptr @pg_strtok(ptr noundef nonnull %1) #10
  %16 = call ptr @nodeRead(ptr noundef null, i32 noundef 0) #10
  %17 = getelementptr inbounds nuw i8, ptr %2, i64 32
  store ptr %16, ptr %17, align 8
  %18 = call ptr @pg_strtok(ptr noundef nonnull %1) #10
  %19 = call ptr @nodeRead(ptr noundef null, i32 noundef 0) #10
  %20 = getelementptr inbounds nuw i8, ptr %2, i64 40
  store ptr %19, ptr %20, align 8
  %21 = call ptr @pg_strtok(ptr noundef nonnull %1) #10
  %22 = call ptr @pg_strtok(ptr noundef nonnull %1) #10
  %23 = call i64 @strtol(ptr noundef nonnull captures(none) %22, ptr noundef null, i32 noundef 10) #10
  %24 = trunc i64 %23 to i32
  %25 = getelementptr inbounds nuw i8, ptr %2, i64 48
  store i32 %24, ptr %25, align 8
  call void @llvm.lifetime.end.p0(i64 4, ptr nonnull %1) #10
  ret ptr %2
}